target datalayout = "e-m:e-p270:32:32-p271:32:32-p272:64:64-i64:64-i128:128-f80:128-n8:16:32:64-S128"
target triple = "x86_64-unknown-linux-gnu"

%struct.Monitor = type { %struct.CharBackend, i32, i8, i8, i8, ptr, %union.anon, %struct.QemuMutex, %struct.anon, ptr, i32, i32, i32 }
%struct.CharBackend = type { ptr, ptr, ptr, ptr, ptr, ptr, i32, i32 }
%union.anon = type { %struct.QTailQLink }
%struct.QTailQLink = type { ptr, ptr }
%struct.QemuMutex = type { %union.pthread_mutex_t, i8 }
%union.pthread_mutex_t = type { %struct.__pthread_mutex_s }
%struct.__pthread_mutex_s = type { i32, i32, i32, i32, i32, i16, i16, %struct.__pthread_internal_list }
%struct.__pthread_internal_list = type { ptr, ptr }
%struct.anon = type { ptr }

@.str.13 = private unnamed_addr constant [22 x i8] c"../qemu/monitor/hmp.c\00", align 1
@.str.54 = private unnamed_addr constant [2 x i8] c"\0A\00", align 1
@__func__.monitor_event = private unnamed_addr constant [14 x i8] c"monitor_event\00", align 1
@qemu_mutex_lock_func = external global ptr, align 8
@.str.65 = private unnamed_addr constant [52 x i8] c"QEMU %s monitor - type 'help' for more information\0A\00", align 1
@.str.66 = private unnamed_addr constant [7 x i8] c"8.1.94\00", align 1
@mon_refcount = external global i32, align 4

; Function Attrs: nounwind sspstrong uwtable
define internal void @monitor_event(ptr noundef %opaque, i32 noundef %event) #0 {
entry:
  %opaque.addr = alloca ptr, align 8
  %event.addr = alloca i32, align 4
  %mon = alloca ptr, align 8
  %_f = alloca ptr, align 8
  %tmp = alloca ptr, align 8
  %atomic-temp = alloca ptr, align 8
  %_f4 = alloca ptr, align 8
  %tmp10 = alloca ptr, align 8
  %atomic-temp11 = alloca ptr, align 8
  %_f26 = alloca ptr, align 8
  %tmp32 = alloca ptr, align 8
  %atomic-temp33 = alloca ptr, align 8
  store ptr %opaque, ptr %opaque.addr, align 8
  store i32 %event, ptr %event.addr, align 4
  %0 = load ptr, ptr %opaque.addr, align 8
  store ptr %0, ptr %mon, align 8
  %1 = load i32, ptr %event.addr, align 4
  switch i32 %1, label %sw.epilog [
    i32 2, label %sw.bb
    i32 3, label %sw.bb3
    i32 1, label %sw.bb24
    i32 4, label %sw.bb42
    i32 0, label %sw.bb43
  ]

sw.bb:                                            ; preds = %entry
  br label %while.cond

while.cond:                                       ; preds = %do.end, %sw.bb
  br i1 false, label %while.body, label %while.end

while.body:                                       ; preds = %while.cond
  br label %do.body

do.body:                                          ; preds = %while.body
  call void @g_assertion_message_expr(ptr noundef null, ptr noundef @.str.13, i32 noundef 1407, ptr noundef @__func__.monitor_event, ptr noundef null) #17
  unreachable

do.end:                                           ; No predecessors!
  br label %while.cond

while.end:                                        ; preds = %while.cond
  %2 = load atomic i64, ptr @qemu_mutex_lock_func monotonic, align 8
  store i64 %2, ptr %atomic-temp, align 8
  %3 = load ptr, ptr %atomic-temp, align 8
  store ptr %3, ptr %tmp, align 8
  %4 = load ptr, ptr %tmp, align 8
  store ptr %4, ptr %_f, align 8
  %5 = load ptr, ptr %_f, align 8
  %6 = load ptr, ptr %mon, align 8
  %mon_lock = getelementptr inbounds %struct.Monitor, ptr %6, i32 0, i32 7
  call void %5(ptr noundef %mon_lock, ptr noundef @.str.13, i32 noundef 1407)
  %7 = load ptr, ptr %mon, align 8
  %mux_out = getelementptr inbounds %struct.Monitor, ptr %7, i32 0, i32 11
  %8 = load i32, ptr %mux_out, align 4
  %tobool = icmp ne i32 %8, 0
  br i1 %tobool, label %if.then, label %if.end

if.then:                                          ; preds = %while.end
  %9 = load ptr, ptr %mon, align 8
  %mux_out1 = getelementptr inbounds %struct.Monitor, ptr %9, i32 0, i32 11
  store i32 0, ptr %mux_out1, align 4
  %10 = load ptr, ptr %mon, align 8
  call void @monitor_resume(ptr noundef %10)
  br label %if.end

if.end:                                           ; preds = %if.then, %while.end
  %11 = load ptr, ptr %mon, align 8
  %mon_lock2 = getelementptr inbounds %struct.Monitor, ptr %11, i32 0, i32 7
  call void @qemu_mutex_unlock_impl(ptr noundef %mon_lock2, ptr noundef @.str.13, i32 noundef 1412)
  br label %sw.epilog

sw.bb3:                                           ; preds = %entry
  br label %while.cond5

while.cond5:                                      ; preds = %do.end8, %sw.bb3
  br i1 false, label %while.body6, label %while.end9

while.body6:                                      ; preds = %while.cond5
  br label %do.body7

do.body7:                                         ; preds = %while.body6
  call void @g_assertion_message_expr(ptr noundef null, ptr noundef @.str.13, i32 noundef 1416, ptr noundef @__func__.monitor_event, ptr noundef null) #17
  unreachable

do.end8:                                          ; No predecessors!
  br label %while.cond5

while.end9:                                       ; preds = %while.cond5
  %12 = load atomic i64, ptr @qemu_mutex_lock_func monotonic, align 8
  store i64 %12, ptr %atomic-temp11, align 8
  %13 = load ptr, ptr %atomic-temp11, align 8
  store ptr %13, ptr %tmp10, align 8
  %14 = load ptr, ptr %tmp10, align 8
  store ptr %14, ptr %_f4, align 8
  %15 = load ptr, ptr %_f4, align 8
  %16 = load ptr, ptr %mon, align 8
  %mon_lock12 = getelementptr inbounds %struct.Monitor, ptr %16, i32 0, i32 7
  call void %15(ptr noundef %mon_lock12, ptr noundef @.str.13, i32 noundef 1416)
  %17 = load ptr, ptr %mon, align 8
  %mux_out13 = getelementptr inbounds %struct.Monitor, ptr %17, i32 0, i32 11
  %18 = load i32, ptr %mux_out13, align 4
  %tobool14 = icmp ne i32 %18, 0
  br i1 %tobool14, label %if.end22, label %if.then15

if.then15:                                        ; preds = %while.end9
  %19 = load ptr, ptr %mon, align 8
  %reset_seen = getelementptr inbounds %struct.Monitor, ptr %19, i32 0, i32 12
  %20 = load i32, ptr %reset_seen, align 8
  %tobool16 = icmp ne i32 %20, 0
  br i1 %tobool16, label %land.lhs.true, label %if.else

land.lhs.true:                                    ; preds = %if.then15
  %21 = load ptr, ptr %mon, align 8
  %suspend_cnt = getelementptr inbounds %struct.Monitor, ptr %21, i32 0, i32 1
  %22 = load i32, ptr %suspend_cnt, align 8
  %tobool17 = icmp ne i32 %22, 0
  br i1 %tobool17, label %if.else, label %if.then18

if.then18:                                        ; preds = %land.lhs.true
  %23 = load ptr, ptr %mon, align 8
  %call = call i32 @monitor_puts_locked(ptr noundef %23, ptr noundef @.str.54)
  br label %if.end19

if.else:                                          ; preds = %land.lhs.true, %if.then15
  %24 = load ptr, ptr %mon, align 8
  call void @monitor_flush_locked(ptr noundef %24)
  br label %if.end19

if.end19:                                         ; preds = %if.else, %if.then18
  %25 = load ptr, ptr %mon, align 8
  %call20 = call i32 @monitor_suspend(ptr noundef %25)
  %26 = load ptr, ptr %mon, align 8
  %mux_out21 = getelementptr inbounds %struct.Monitor, ptr %26, i32 0, i32 11
  store i32 1, ptr %mux_out21, align 4
  br label %if.end22

if.end22:                                         ; preds = %if.end19, %while.end9
  %27 = load ptr, ptr %mon, align 8
  %mon_lock23 = getelementptr inbounds %struct.Monitor, ptr %27, i32 0, i32 7
  call void @qemu_mutex_unlock_impl(ptr noundef %mon_lock23, ptr noundef @.str.13, i32 noundef 1426)
  br label %sw.epilog

sw.bb24:                                          ; preds = %entry
  %28 = load ptr, ptr %mon, align 8
  %call25 = call i32 (ptr, ptr, ...) @monitor_printf(ptr noundef %28, ptr noundef @.str.65, ptr noundef @.str.66)
  br label %while.cond27

while.cond27:                                     ; preds = %do.end30, %sw.bb24
  br i1 false, label %while.body28, label %while.end31

while.body28:                                     ; preds = %while.cond27
  br label %do.body29

do.body29:                                        ; preds = %while.body28
  call void @g_assertion_message_expr(ptr noundef null, ptr noundef @.str.13, i32 noundef 1432, ptr noundef @__func__.monitor_event, ptr noundef null) #17
  unreachable

do.end30:                                         ; No predecessors!
  br label %while.cond27

while.end31:                                      ; preds = %while.cond27
  %29 = load atomic i64, ptr @qemu_mutex_lock_func monotonic, align 8
  store i64 %29, ptr %atomic-temp33, align 8
  %30 = load ptr, ptr %atomic-temp33, align 8
  store ptr %30, ptr %tmp32, align 8
  %31 = load ptr, ptr %tmp32, align 8
  store ptr %31, ptr %_f26, align 8
  %32 = load ptr, ptr %_f26, align 8
  %33 = load ptr, ptr %mon, align 8
  %mon_lock34 = getelementptr inbounds %struct.Monitor, ptr %33, i32 0, i32 7
  call void %32(ptr noundef %mon_lock34, ptr noundef @.str.13, i32 noundef 1432)
  %34 = load ptr, ptr %mon, align 8
  %reset_seen35 = getelementptr inbounds %struct.Monitor, ptr %34, i32 0, i32 12
  store i32 1, ptr %reset_seen35, align 8
  %35 = load ptr, ptr %mon, align 8
  %mux_out36 = getelementptr inbounds %struct.Monitor, ptr %35, i32 0, i32 11
  %36 = load i32, ptr %mux_out36, align 4
  %tobool37 = icmp ne i32 %36, 0
  br i1 %tobool37, label %if.end40, label %if.then38

if.then38:                                        ; preds = %while.end31
  %37 = load ptr, ptr %mon, align 8
  %call39 = call i32 @monitor_suspend(ptr noundef %37)
  %38 = load ptr, ptr %mon, align 8
  call void @monitor_resume(ptr noundef %38)
  br label %if.end40

if.end40:                                         ; preds = %if.then38, %while.end31
  %39 = load ptr, ptr %mon, align 8
  %mon_lock41 = getelementptr inbounds %struct.Monitor, ptr %39, i32 0, i32 7
  call void @qemu_mutex_unlock_impl(ptr noundef %mon_lock41, ptr noundef @.str.13, i32 noundef 1439)
  %40 = load i32, ptr @mon_refcount, align 4
  %inc = add i32 %40, 1
  store i32 %inc, ptr @mon_refcount, align 4
  br label %sw.epilog

sw.bb42:                                          ; preds = %entry
  %41 = load i32, ptr @mon_refcount, align 4
  %dec = add i32 %41, -1
  store i32 %dec, ptr @mon_refcount, align 4
  call void @monitor_fdsets_cleanup()
  br label %sw.epilog

sw.bb43:                                          ; preds = %entry
  br label %sw.epilog

sw.epilog:                                        ; preds = %sw.bb43, %sw.bb42, %if.end40, %if.end22, %if.end, %entry
  ret void
}