; Function Attrs: nounwind sspstrong uwtable
define internal void @monitor_event(ptr noundef %opaque, i32 noundef %event) #0 {
entry:
  switch i32 %event, label %sw.epilog [
    i32 2, label %while.end
    i32 3, label %while.end9
    i32 1, label %sw.bb24
    i32 4, label %sw.bb42
  ]

while.end:                                        ; preds = %entry
  %0 = load atomic i64, ptr @qemu_mutex_lock_func monotonic, align 8
  %1 = inttoptr i64 %0 to ptr
  %mon_lock = getelementptr inbounds nuw i8, ptr %opaque, i64 88
  tail call void %1(ptr noundef nonnull %mon_lock, ptr noundef nonnull @.str.13, i32 noundef 1407) #19
  %mux_out = getelementptr inbounds nuw i8, ptr %opaque, i64 156
  %2 = load i32, ptr %mux_out, align 4
  %tobool.not = icmp eq i32 %2, 0
  br i1 %tobool.not, label %if.end, label %if.then

if.then:                                          ; preds = %while.end
  store i32 0, ptr %mux_out, align 4
  tail call void @monitor_resume(ptr noundef nonnull %opaque) #19
  br label %if.end

if.end:                                           ; preds = %if.then, %while.end
  tail call void @qemu_mutex_unlock_impl(ptr noundef nonnull %mon_lock, ptr noundef nonnull @.str.13, i32 noundef 1412) #19
  br label %sw.epilog

while.end9:                                       ; preds = %entry
  %3 = load atomic i64, ptr @qemu_mutex_lock_func monotonic, align 8
  %4 = inttoptr i64 %3 to ptr
  %mon_lock12 = getelementptr inbounds nuw i8, ptr %opaque, i64 88
  tail call void %4(ptr noundef nonnull %mon_lock12, ptr noundef nonnull @.str.13, i32 noundef 1416) #19
  %mux_out13 = getelementptr inbounds nuw i8, ptr %opaque, i64 156
  %5 = load i32, ptr %mux_out13, align 4
  %tobool14.not = icmp eq i32 %5, 0
  br i1 %tobool14.not, label %if.then15, label %if.end22

if.then15:                                        ; preds = %while.end9
  %reset_seen = getelementptr inbounds nuw i8, ptr %opaque, i64 160
  %6 = load i32, ptr %reset_seen, align 8
  %tobool16.not = icmp eq i32 %6, 0
  br i1 %tobool16.not, label %if.else, label %land.lhs.true

land.lhs.true:                                    ; preds = %if.then15
  %suspend_cnt = getelementptr inbounds nuw i8, ptr %opaque, i64 56
  %7 = load i32, ptr %suspend_cnt, align 8
  %tobool17.not = icmp eq i32 %7, 0
  br i1 %tobool17.not, label %if.then18, label %if.else

if.then18:                                        ; preds = %land.lhs.true
  %call = tail call i32 @monitor_puts_locked(ptr noundef nonnull %opaque, ptr noundef nonnull @.str.54) #19
  br label %if.end19

if.else:                                          ; preds = %land.lhs.true, %if.then15
  tail call void @monitor_flush_locked(ptr noundef nonnull %opaque) #19
  br label %if.end19

if.end19:                                         ; preds = %if.else, %if.then18
  %call20 = tail call i32 @monitor_suspend(ptr noundef nonnull %opaque) #19
  store i32 1, ptr %mux_out13, align 4
  br label %if.end22

if.end22:                                         ; preds = %if.end19, %while.end9
  tail call void @qemu_mutex_unlock_impl(ptr noundef nonnull %mon_lock12, ptr noundef nonnull @.str.13, i32 noundef 1426) #19
  br label %sw.epilog

sw.bb24:                                          ; preds = %entry
  %call25 = tail call i32 (ptr, ptr, ...) @monitor_printf(ptr noundef %opaque, ptr noundef nonnull @.str.65, ptr noundef nonnull @.str.66) #19
  %8 = load atomic i64, ptr @qemu_mutex_lock_func monotonic, align 8
  %9 = inttoptr i64 %8 to ptr
  %mon_lock34 = getelementptr inbounds nuw i8, ptr %opaque, i64 88
  tail call void %9(ptr noundef nonnull %mon_lock34, ptr noundef nonnull @.str.13, i32 noundef 1432) #19
  %reset_seen35 = getelementptr inbounds nuw i8, ptr %opaque, i64 160
  store i32 1, ptr %reset_seen35, align 8
  %mux_out36 = getelementptr inbounds nuw i8, ptr %opaque, i64 156
  %10 = load i32, ptr %mux_out36, align 4
  %tobool37.not = icmp eq i32 %10, 0
  br i1 %tobool37.not, label %if.then38, label %if.end40

if.then38:                                        ; preds = %sw.bb24
  %call39 = tail call i32 @monitor_suspend(ptr noundef nonnull %opaque) #19
  tail call void @monitor_resume(ptr noundef nonnull %opaque) #19
  br label %if.end40

if.end40:                                         ; preds = %if.then38, %sw.bb24
  tail call void @qemu_mutex_unlock_impl(ptr noundef nonnull %mon_lock34, ptr noundef nonnull @.str.13, i32 noundef 1439) #19
  %11 = load i32, ptr @mon_refcount, align 4
  %inc = add i32 %11, 1
  store i32 %inc, ptr @mon_refcount, align 4
  br label %sw.epilog

sw.bb42:                                          ; preds = %entry
  %12 = load i32, ptr @mon_refcount, align 4
  %dec = add i32 %12, -1
  store i32 %dec, ptr @mon_refcount, align 4
  tail call void @monitor_fdsets_cleanup() #19
  br label %sw.epilog

sw.epilog:                                        ; preds = %sw.bb42, %if.end40, %if.end22, %if.end, %entry
  ret void
}